; Function Attrs: mustprogress uwtable
define void @_ZN2cv3Mat6createERKSt6vectorIiSaIiEEi(ptr noundef nonnull align 8 dereferenceable(96) %0, ptr noundef nonnull readonly align 8 captures(none) dereferenceable(24) %1, i32 noundef %2) local_unnamed_addr #1 align 2 {
  %4 = getelementptr inbounds nuw i8, ptr %1, i64 8
  %5 = load ptr, ptr %4, align 8, !tbaa !75
  %6 = load ptr, ptr %1, align 8, !tbaa !77
  %7 = ptrtoint ptr %5 to i64
  %8 = ptrtoint ptr %6 to i64
  %9 = sub i64 %7, %8
  %10 = lshr exact i64 %9, 2
  %11 = trunc i64 %10 to i32
  tail call void @_ZN2cv3Mat6createEiPKii(ptr noundef nonnull align 8 dereferenceable(96) %0, i32 noundef %11, ptr noundef %6, i32 noundef %2)
  ret void
}